target datalayout = "e-m:e-p270:32:32-p271:32:32-p272:64:64-i64:64-i128:128-f80:128-n8:16:32:64-S128"
target triple = "x86_64-pc-linux-gnu"

%class.QString = type { %struct.QArrayDataPointer }
%struct.QArrayDataPointer = type { ptr, ptr, i64 }
%class.SequenceDialog = type <{ %class.WiresharkDialog.base, [3 x i8], ptr, ptr, ptr, i32, i32, double, i32, i8, [3 x i8], ptr, ptr, ptr, %class.QMenu, ptr, ptr, ptr, ptr, %class.QPointer, i8, [7 x i8] }>
%class.WiresharkDialog.base = type <{ %class.GeometryStateDialog, ptr, i8, [7 x i8], %class.QString, %class.QList, i32, i8 }>
%class.GeometryStateDialog = type { %class.QDialog, %class.QString, ptr }
%class.QDialog = type { %class.QWidget }
%class.QWidget = type { %class.QObject, %class.QPaintDevice.base, ptr }
%class.QObject = type { ptr, %class.QScopedPointer }
%class.QScopedPointer = type { ptr }
%class.QPaintDevice.base = type <{ ptr, i16 }>
%class.QList = type { %struct.QArrayDataPointer.0 }
%struct.QArrayDataPointer.0 = type { ptr, ptr, i64 }
%class.QMenu = type { %class.QWidget }
%class.QPointer = type { %class.QWeakPointer }
%class.QWeakPointer = type { ptr, ptr }
%struct._address = type { i32, i32, ptr, ptr }
%struct._seq_analysis_item = type { i32, %struct._address, i16, %struct._address, i16, ptr, ptr, ptr, i16, i32, i32, i8, i8, i32, i32, i16, i32, ptr }
%struct.nstime_t = type { i64, i32 }
%class.QList.89 = type { %struct.QArrayDataPointer.92 }
%struct.QArrayDataPointer.92 = type { ptr, ptr, i64 }
%struct._rtpstream_info = type { %struct._rtpstream_id, i8, ptr, [256 x ptr], ptr, i8, i32, i8, i32, i32, i32, ptr, ptr, %struct.nstime_t, %struct.nstime_t, %struct.nstime_t, i16, i8, i8, %struct._tap_rtp_stat_t, i8, ptr }
%struct._rtpstream_id = type { %struct._address, i16, %struct._address, i16, i32 }
%struct._tap_rtp_stat_t = type { i8, i32, i16, i64, i64, double, [300 x %struct._bw_history_item], i16, i16, i32, i32, double, double, double, double, double, double, double, double, double, double, double, double, double, double, double, double, double, double, double, i32, i32, i32, i32, i32, i16, i32, i32, i32 }
%struct._bw_history_item = type { double, i32 }

; Function Attrs: mustprogress nounwind null_pointer_is_valid sspstrong uwtable
define linkonce_odr noundef ptr @_ZN17QArrayDataPointerIP13_rtpstream_idE4dataEv(ptr noundef align 8 dereferenceable_or_null(24) %0) #3 comdat align 2 {
  %2 = alloca ptr, align 8
  store ptr %0, ptr %2, align 8
  %3 = load ptr, ptr %2, align 8
  %4 = getelementptr inbounds nuw %struct.QArrayDataPointer.92, ptr %3, i32 0, i32 1
  %5 = load ptr, ptr %4, align 8
  ret ptr %5
}

; Function Attrs: mustprogress nounwind null_pointer_is_valid sspstrong uwtable
define linkonce_odr noundef ptr @_ZN17QArrayDataPointerIP13_rtpstream_idE3endEv(ptr noundef align 8 dereferenceable_or_null(24) %0) #3 comdat align 2 {
  %2 = alloca ptr, align 8
  store ptr %0, ptr %2, align 8
  %3 = load ptr, ptr %2, align 8
  %4 = call noundef ptr @_ZN17QArrayDataPointerIP13_rtpstream_idE4dataEv(ptr noundef align 8 dereferenceable_or_null(24) %3) #25
  %5 = getelementptr inbounds nuw %struct.QArrayDataPointer.92, ptr %3, i32 0, i32 2
  %6 = load i64, ptr %5, align 8
  %7 = getelementptr ptr, ptr %4, i64 %6
  ret ptr %7
}

; Function Attrs: mustprogress nounwind null_pointer_is_valid sspstrong uwtable
define linkonce_odr noundef ptr @_ZN17QArrayDataPointerIP13_rtpstream_idEptEv(ptr noundef align 8 dereferenceable_or_null(24) %0) #3 comdat align 2 {
  %2 = alloca ptr, align 8
  store ptr %0, ptr %2, align 8
  %3 = load ptr, ptr %2, align 8
  ret ptr %3
}

; Function Attrs: inlinehint mustprogress null_pointer_is_valid sspstrong uwtable
define linkonce_odr noundef align 8 dereferenceable(8) ptr @_ZN5QListIP13_rtpstream_idE11emplaceBackIJRS1_EEES4_DpOT_(ptr noundef align 8 dereferenceable_or_null(24) %0, ptr noundef align 8 dereferenceable(8) %1) #5 comdat align 2 {
  %3 = alloca ptr, align 8
  %4 = alloca ptr, align 8
  store ptr %0, ptr %3, align 8
  store ptr %1, ptr %4, align 8
  %5 = load ptr, ptr %3, align 8
  %6 = getelementptr inbounds nuw %class.QList.89, ptr %5, i32 0, i32 0
  %7 = call noundef ptr @_ZN17QArrayDataPointerIP13_rtpstream_idEptEv(ptr noundef align 8 dereferenceable_or_null(24) %6) #25
  %8 = getelementptr inbounds nuw %class.QList.89, ptr %5, i32 0, i32 0
  %9 = call noundef ptr @_ZN17QArrayDataPointerIP13_rtpstream_idEptEv(ptr noundef align 8 dereferenceable_or_null(24) %8) #25
  %10 = getelementptr inbounds nuw %struct.QArrayDataPointer.92, ptr %9, i32 0, i32 2
  %11 = load i64, ptr %10, align 8
  %12 = load ptr, ptr %4, align 8
  call void @_ZN9QtPrivate12QPodArrayOpsIP13_rtpstream_idE7emplaceIJRS2_EEEvxDpOT_(ptr noundef align 8 dereferenceable_or_null(24) %7, i64 noundef %11, ptr noundef align 8 dereferenceable(8) %12)
  %13 = getelementptr inbounds nuw %class.QList.89, ptr %5, i32 0, i32 0
  %14 = call noundef ptr @_ZN17QArrayDataPointerIP13_rtpstream_idE3endEv(ptr noundef align 8 dereferenceable_or_null(24) %13) #25
  %15 = getelementptr ptr, ptr %14, i64 -1
  ret ptr %15
}

; Function Attrs: mustprogress null_pointer_is_valid sspstrong uwtable
define linkonce_odr void @_ZN5QListIP13_rtpstream_idE6appendES1_(ptr noundef align 8 dereferenceable_or_null(24) %0, ptr noundef %1) #0 comdat align 2 {
  %3 = alloca ptr, align 8
  %4 = alloca ptr, align 8
  store ptr %0, ptr %3, align 8
  store ptr %1, ptr %4, align 8
  %5 = load ptr, ptr %3, align 8
  %6 = call noundef align 8 dereferenceable(8) ptr @_ZN5QListIP13_rtpstream_idE11emplaceBackIJRS1_EEES4_DpOT_(ptr noundef align 8 dereferenceable_or_null(24) %5, ptr noundef align 8 dereferenceable(8) %4)
  ret void
}

; Function Attrs: mustprogress nounwind null_pointer_is_valid sspstrong uwtable
define linkonce_odr void @_ZN17QArrayDataPointerIP13_rtpstream_idEC2Ev(ptr noundef align 8 dereferenceable_or_null(24) %0) unnamed_addr #3 comdat align 2 {
  %2 = alloca ptr, align 8
  store ptr %0, ptr %2, align 8
  %3 = load ptr, ptr %2, align 8
  %4 = getelementptr inbounds nuw %struct.QArrayDataPointer.92, ptr %3, i32 0, i32 0
  store ptr null, ptr %4, align 8
  %5 = getelementptr inbounds nuw %struct.QArrayDataPointer.92, ptr %3, i32 0, i32 1
  store ptr null, ptr %5, align 8
  %6 = getelementptr inbounds nuw %struct.QArrayDataPointer.92, ptr %3, i32 0, i32 2
  store i64 0, ptr %6, align 8
  ret void
}

; Function Attrs: inlinehint mustprogress null_pointer_is_valid sspstrong uwtable
define linkonce_odr noundef align 8 dereferenceable(24) ptr @_ZN5QListIP13_rtpstream_idElsES1_(ptr noundef align 8 dereferenceable_or_null(24) %0, ptr noundef %1) #5 comdat align 2 {
  %3 = alloca ptr, align 8
  %4 = alloca ptr, align 8
  store ptr %0, ptr %3, align 8
  store ptr %1, ptr %4, align 8
  %5 = load ptr, ptr %3, align 8
  %6 = load ptr, ptr %4, align 8
  call void @_ZN5QListIP13_rtpstream_idE6appendES1_(ptr noundef align 8 dereferenceable_or_null(24) %5, ptr noundef %6)
  ret ptr %5
}

; Function Attrs: mustprogress nounwind null_pointer_is_valid sspstrong uwtable
define linkonce_odr void @_ZN5QListIP13_rtpstream_idEC2Ev(ptr noundef align 8 dereferenceable_or_null(24) %0) unnamed_addr #3 comdat align 2 {
  %2 = alloca ptr, align 8
  store ptr %0, ptr %2, align 8
  %3 = load ptr, ptr %2, align 8
  %4 = getelementptr inbounds nuw %class.QList.89, ptr %3, i32 0, i32 0
  call void @_ZN17QArrayDataPointerIP13_rtpstream_idEC2Ev(ptr noundef align 8 dereferenceable_or_null(24) %4) #25
  ret void
}

; Function Attrs: mustprogress null_pointer_is_valid sspstrong uwtable
define void @_ZN14SequenceDialog17getSelectedRtpIdsEv(ptr dead_on_unwind noalias writable sret(%class.QList.89) align 8 %0, ptr noundef align 8 dereferenceable_or_null(305) %1) #0 align 2 personality ptr @__gxx_personality_v0 {
  %3 = alloca ptr, align 8
  %4 = alloca ptr, align 8
  %5 = alloca i1, align 1
  %6 = alloca ptr, align 8
  %7 = alloca i32, align 4
  store ptr %0, ptr %3, align 8
  store ptr %1, ptr %4, align 8
  %8 = load ptr, ptr %4, align 8
  store i1 false, ptr %5, align 1
  call void @_ZN5QListIP13_rtpstream_idEC2Ev(ptr noundef align 8 dereferenceable_or_null(24) %0) #25
  %9 = getelementptr inbounds nuw %class.SequenceDialog, ptr %8, i32 0, i32 17
  %10 = load ptr, ptr %9, align 8
  %11 = icmp ne ptr %10, null
  br i1 %11, label %12, label %30

12:                                               ; preds = %2
  %13 = getelementptr inbounds nuw %class.SequenceDialog, ptr %8, i32 0, i32 17
  %14 = load ptr, ptr %13, align 8
  %15 = getelementptr inbounds nuw %struct._seq_analysis_item, ptr %14, i32 0, i32 16
  %16 = load i32, ptr %15, align 4
  %17 = icmp eq i32 1, %16
  br i1 %17, label %18, label %30

18:                                               ; preds = %12
  %19 = getelementptr inbounds nuw %class.SequenceDialog, ptr %8, i32 0, i32 17
  %20 = load ptr, ptr %19, align 8
  %21 = getelementptr inbounds nuw %struct._seq_analysis_item, ptr %20, i32 0, i32 17
  %22 = load ptr, ptr %21, align 8
  %23 = getelementptr inbounds nuw %struct._rtpstream_info, ptr %22, i32 0, i32 0
  %24 = invoke noundef align 8 dereferenceable(24) ptr @_ZN5QListIP13_rtpstream_idElsES1_(ptr noundef align 8 dereferenceable_or_null(24) %0, ptr noundef %23)
          to label %25 unwind label %26

25:                                               ; preds = %18
  br label %30

26:                                               ; preds = %18
  %27 = landingpad { ptr, i32 }
          cleanup
  %28 = extractvalue { ptr, i32 } %27, 0
  store ptr %28, ptr %6, align 8
  %29 = extractvalue { ptr, i32 } %27, 1
  store i32 %29, ptr %7, align 4
  call void @_ZN5QListIP13_rtpstream_idED2Ev(ptr noundef align 8 dereferenceable_or_null(24) %0) #25
  br label %34

30:                                               ; preds = %25, %12, %2
  store i1 true, ptr %5, align 1
  %31 = load i1, ptr %5, align 1
  br i1 %31, label %33, label %32

32:                                               ; preds = %30
  call void @_ZN5QListIP13_rtpstream_idED2Ev(ptr noundef align 8 dereferenceable_or_null(24) %0) #25
  br label %33

33:                                               ; preds = %32, %30
  ret void

34:                                               ; preds = %26
  %35 = load ptr, ptr %6, align 8
  %36 = load i32, ptr %7, align 4
  %37 = insertvalue { ptr, i32 } poison, ptr %35, 0
  %38 = insertvalue { ptr, i32 } %37, i32 %36, 1
  resume { ptr, i32 } %38
}