; Function Attrs: mustprogress null_pointer_is_valid sspstrong uwtable
define void @_ZN14SequenceDialog17getSelectedRtpIdsEv(ptr dead_on_unwind noalias writable sret(%class.QList.89) align 8 initializes((0, 24)) %0, ptr noundef readonly align 8 captures(none) dereferenceable_or_null(305) %1) local_unnamed_addr #0 align 2 personality ptr @__gxx_personality_v0 {
  %3 = alloca ptr, align 8
  tail call void @llvm.memset.p0.i64(ptr noundef align 8 dereferenceable(24) dereferenceable_or_null(24) %0, i8 0, i64 24, i1 false)
  %4 = getelementptr inbounds nuw i8, ptr %1, i64 272
  %5 = load ptr, ptr %4, align 8
  %.not = icmp eq ptr %5, null
  br i1 %.not, label %15, label %6

6:                                                ; preds = %2
  %7 = getelementptr inbounds nuw i8, ptr %5, i64 124
  %8 = load i32, ptr %7, align 4
  %9 = icmp eq i32 %8, 1
  br i1 %9, label %10, label %15

10:                                               ; preds = %6
  %11 = getelementptr inbounds nuw i8, ptr %5, i64 128
  %12 = load ptr, ptr %11, align 8
  call void @llvm.lifetime.start.p0(i64 8, ptr nonnull %3)
  store ptr %12, ptr %3, align 8
  invoke void @_ZN9QtPrivate12QPodArrayOpsIP13_rtpstream_idE7emplaceIJRS2_EEEvxDpOT_(ptr noundef align 8 dereferenceable_or_null(24) %0, i64 noundef 0, ptr noundef nonnull align 8 dereferenceable(8) %3)
          to label %_ZN5QListIP13_rtpstream_idElsES1_.exit unwind label %13

_ZN5QListIP13_rtpstream_idElsES1_.exit:           ; preds = %10
  call void @llvm.lifetime.end.p0(i64 8, ptr nonnull %3)
  br label %15

13:                                               ; preds = %10
  %14 = landingpad { ptr, i32 }
          cleanup
  call void @_ZN5QListIP13_rtpstream_idED2Ev(ptr noundef align 8 dereferenceable_or_null(24) %0) #25
  resume { ptr, i32 } %14

15:                                               ; preds = %_ZN5QListIP13_rtpstream_idElsES1_.exit, %2, %6
  ret void
}